; Function Attrs: mustprogress uwtable
define void @_ZN8proxygen11SessionPool25closeSessionListWithResetERN5boost9intrusive4listINS_13SessionHolderEJNS2_11member_hookIS4_NS2_16list_member_hookIJNS2_9link_modeILNS2_14link_mode_typeE1EEEEEEXadL_ZNS4_8listHookEEEEENS2_18constant_time_sizeILb1EEEEEE(ptr nocapture noundef nonnull readnone align 8 dereferenceable(136) %this, ptr noundef nonnull readonly align 8 dereferenceable(24) %list) local_unnamed_addr #3 align 2 personality ptr @__gxx_personality_v0 {
entry:
  %m_header.i27 = getelementptr inbounds i8, ptr %list, i64 8
  %0 = load ptr, ptr %m_header.i27, align 8
  %tobool.not.i2 = icmp eq ptr %0, null
  %cmp.i3 = icmp eq ptr %0, %m_header.i27
  %1 = or i1 %tobool.not.i2, %cmp.i3
  br i1 %1, label %while.end, label %while.body.lr.ph

while.body.lr.ph:                                 ; preds = %entry
  %prev_.i = getelementptr inbounds i8, ptr %list, i64 16
  br label %while.body

while.body:                                       ; preds = %while.body.lr.ph, %while.body
  %2 = load ptr, ptr %prev_.i, align 8
  %add.ptr.i = getelementptr inbounds i8, ptr %2, i64 -8
  tail call void @_ZN8proxygen13SessionHolder14closeWithResetEv(ptr noundef nonnull align 8 dereferenceable(152) %add.ptr.i)
  %3 = load ptr, ptr %m_header.i27, align 8
  %tobool.not.i = icmp eq ptr %3, null
  %cmp.i = icmp eq ptr %3, %m_header.i27
  %4 = or i1 %tobool.not.i, %cmp.i
  br i1 %4, label %while.end, label %while.body, !llvm.loop !9

while.end:                                        ; preds = %while.body, %entry
  ret void
}